; ModuleID = '56/389.c'
source_filename = "56/389.c"
target datalayout = "e-m:e-p270:32:32-p271:32:32-p272:64:64-i64:64-f80:128-n8:16:32:64-S128"
target triple = "x86_64-pc-linux-gnu"

@.str = private unnamed_addr constant [3 x i8] c"%d\00", align 1
@.str.1 = private unnamed_addr constant [11 x i8] c"%d%d%d%d%d\00", align 1
@.str.2 = private unnamed_addr constant [9 x i8] c"%d%d%d%d\00", align 1
@.str.3 = private unnamed_addr constant [7 x i8] c"%d%d%d\00", align 1
@.str.4 = private unnamed_addr constant [5 x i8] c"%d%d\00", align 1

; Function Attrs: noinline nounwind uwtable
define dso_local i32 @main(i32 %0, i8** %1) #0 {
  %3 = alloca i32, align 4
  %4 = alloca i32, align 4
  %5 = alloca i8**, align 8
  %6 = alloca i32, align 4
  %7 = alloca i32, align 4
  %8 = alloca i32, align 4
  %9 = alloca i32, align 4
  %10 = alloca i32, align 4
  %11 = alloca i32, align 4
  store i32 0, i32* %3, align 4
  store i32 %0, i32* %4, align 4
  store i8** %1, i8*** %5, align 8
  %12 = call i32 (i8*, ...) @__isoc99_scanf(i8* getelementptr inbounds ([3 x i8], [3 x i8]* @.str, i64 0, i64 0), i32* %6)
  %13 = load i32, i32* %6, align 4
  %14 = srem i32 %13, 10
  store i32 %14, i32* %7, align 4
  %15 = load i32, i32* %6, align 4
  %16 = load i32, i32* %7, align 4
  %17 = sub nsw i32 %15, %16
  %18 = srem i32 %17, 100
  %19 = sdiv i32 %18, 10
  store i32 %19, i32* %8, align 4
  %20 = load i32, i32* %6, align 4
  %21 = load i32, i32* %7, align 4
  %22 = sub nsw i32 %20, %21
  %23 = load i32, i32* %8, align 4
  %24 = mul nsw i32 %23, 10
  %25 = sub nsw i32 %22, %24
  %26 = srem i32 %25, 1000
  %27 = sdiv i32 %26, 100
  store i32 %27, i32* %9, align 4
  %28 = load i32, i32* %6, align 4
  %29 = load i32, i32* %7, align 4
  %30 = sub nsw i32 %28, %29
  %31 = load i32, i32* %8, align 4
  %32 = mul nsw i32 %31, 10
  %33 = sub nsw i32 %30, %32
  %34 = load i32, i32* %9, align 4
  %35 = mul nsw i32 %34, 100
  %36 = sub nsw i32 %33, %35
  %37 = srem i32 %36, 10000
  %38 = sdiv i32 %37, 1000
  store i32 %38, i32* %10, align 4
  %39 = load i32, i32* %6, align 4
  %40 = load i32, i32* %7, align 4
  %41 = sub nsw i32 %39, %40
  %42 = load i32, i32* %8, align 4
  %43 = mul nsw i32 %42, 10
  %44 = sub nsw i32 %41, %43
  %45 = load i32, i32* %9, align 4
  %46 = mul nsw i32 %45, 100
  %47 = sub nsw i32 %44, %46
  %48 = load i32, i32* %10, align 4
  %49 = mul nsw i32 %48, 1000
  %50 = sub nsw i32 %47, %49
  %51 = srem i32 %50, 100000
  %52 = sdiv i32 %51, 10000
  store i32 %52, i32* %11, align 4
  %53 = load i32, i32* %11, align 4
  %54 = icmp ne i32 %53, 0
  br i1 %54, label %55, label %62

55:                                               ; preds = %2
  %56 = load i32, i32* %7, align 4
  %57 = load i32, i32* %8, align 4
  %58 = load i32, i32* %9, align 4
  %59 = load i32, i32* %10, align 4
  %60 = load i32, i32* %11, align 4
  %61 = call i32 (i8*, ...) @printf(i8* getelementptr inbounds ([11 x i8], [11 x i8]* @.str.1, i64 0, i64 0), i32 %56, i32 %57, i32 %58, i32 %59, i32 %60)
  br label %107

62:                                               ; preds = %2
  %63 = load i32, i32* %11, align 4
  %64 = icmp eq i32 %63, 0
  br i1 %64, label %65, label %74

65:                                               ; preds = %62
  %66 = load i32, i32* %10, align 4
  %67 = icmp ne i32 %66, 0
  br i1 %67, label %68, label %74

68:                                               ; preds = %65
  %69 = load i32, i32* %7, align 4
  %70 = load i32, i32* %8, align 4
  %71 = load i32, i32* %9, align 4
  %72 = load i32, i32* %10, align 4
  %73 = call i32 (i8*, ...) @printf(i8* getelementptr inbounds ([9 x i8], [9 x i8]* @.str.2, i64 0, i64 0), i32 %69, i32 %70, i32 %71, i32 %72)
  br label %106

74:                                               ; preds = %65, %62
  %75 = load i32, i32* %11, align 4
  %76 = icmp eq i32 %75, 0
  br i1 %76, label %77, label %88

77:                                               ; preds = %74
  %78 = load i32, i32* %10, align 4
  %79 = icmp eq i32 %78, 0
  br i1 %79, label %80, label %88

80:                                               ; preds = %77
  %81 = load i32, i32* %9, align 4
  %82 = icmp ne i32 %81, 0
  br i1 %82, label %83, label %88

83:                                               ; preds = %80
  %84 = load i32, i32* %7, align 4
  %85 = load i32, i32* %8, align 4
  %86 = load i32, i32* %9, align 4
  %87 = call i32 (i8*, ...) @printf(i8* getelementptr inbounds ([7 x i8], [7 x i8]* @.str.3, i64 0, i64 0), i32 %84, i32 %85, i32 %86)
  br label %105

88:                                               ; preds = %80, %77, %74
  %89 = load i32, i32* %11, align 4
  %90 = icmp eq i32 %89, 0
  br i1 %90, label %91, label %104

91:                                               ; preds = %88
  %92 = load i32, i32* %10, align 4
  %93 = icmp eq i32 %92, 0
  br i1 %93, label %94, label %104

94:                                               ; preds = %91
  %95 = load i32, i32* %9, align 4
  %96 = icmp eq i32 %95, 0
  br i1 %96, label %97, label %104

97:                                               ; preds = %94
  %98 = load i32, i32* %8, align 4
  %99 = icmp ne i32 %98, 0
  br i1 %99, label %100, label %104

100:                                              ; preds = %97
  %101 = load i32, i32* %7, align 4
  %102 = load i32, i32* %8, align 4
  %103 = call i32 (i8*, ...) @printf(i8* getelementptr inbounds ([5 x i8], [5 x i8]* @.str.4, i64 0, i64 0), i32 %101, i32 %102)
  br label %104

104:                                              ; preds = %100, %97, %94, %91, %88
  br label %105

105:                                              ; preds = %104, %83
  br label %106

106:                                              ; preds = %105, %68
  br label %107

107:                                              ; preds = %106, %55
  ret i32 0
}

declare dso_local i32 @__isoc99_scanf(i8*, ...) #1

declare dso_local i32 @printf(i8*, ...) #1


!llvm.module.flags = !{!0}
!llvm.ident = !{!1}

!0 = !{i32 1, !"wchar_size", i32 4}
!1 = !{!"clang version 10.0.0-4ubuntu1 "}
