; ModuleID = 'source-C-CXX/55/389.c'
source_filename = "source-C-CXX/55/389.c"
target datalayout = "e-m:e-p270:32:32-p271:32:32-p272:64:64-i64:64-f80:128-n8:16:32:64-S128"
target triple = "x86_64-pc-linux-gnu"

@.str = private unnamed_addr constant [3 x i8] c"%d\00", align 1
@.str.1 = private unnamed_addr constant [11 x i8] c"%d%d%d%d%d\00", align 1
@.str.2 = private unnamed_addr constant [9 x i8] c"%d%d%d%d\00", align 1
@.str.3 = private unnamed_addr constant [7 x i8] c"%d%d%d\00", align 1
@.str.4 = private unnamed_addr constant [5 x i8] c"%d%d\00", align 1

; Function Attrs: nofree nounwind sspstrong uwtable
define dso_local i32 @main(i32 %0, i8** nocapture readnone %1) local_unnamed_addr #0 {
  %3 = alloca i32, align 4
  %4 = bitcast i32* %3 to i8*
  call void @llvm.lifetime.start.p0i8(i64 4, i8* nonnull %4) #3
  %5 = call i32 (i8*, ...) @__isoc99_scanf(i8* getelementptr inbounds ([3 x i8], [3 x i8]* @.str, i64 0, i64 0), i32* nonnull %3)
  %6 = load i32, i32* %3, align 4, !tbaa !5
  %7 = srem i32 %6, 10
  %8 = sub nsw i32 %6, %7
  %9 = srem i32 %8, 100
  %10 = trunc i32 %9 to i8
  %11 = sdiv i8 %10, 10
  %12 = sext i8 %11 to i32
  %13 = mul nsw i32 %12, -10
  %14 = add i32 %13, %8
  %15 = srem i32 %14, 1000
  %16 = trunc i32 %15 to i16
  %17 = sdiv i16 %16, 100
  %18 = sext i16 %17 to i32
  %19 = mul nsw i32 %18, -100
  %20 = add i32 %19, %14
  %21 = srem i32 %20, 10000
  %22 = trunc i32 %21 to i16
  %23 = sdiv i16 %22, 1000
  %24 = sext i16 %23 to i32
  %25 = mul nsw i32 %24, -1000
  %26 = add i32 %25, %20
  %27 = srem i32 %26, 100000
  %28 = add nsw i32 %27, 9999
  %29 = icmp ult i32 %28, 19999
  br i1 %29, label %33, label %30

30:                                               ; preds = %2
  %31 = sdiv i32 %27, 10000
  %32 = call i32 (i8*, ...) @printf(i8* nonnull dereferenceable(1) getelementptr inbounds ([11 x i8], [11 x i8]* @.str.1, i64 0, i64 0), i32 %7, i32 %12, i32 %18, i32 %24, i32 %31)
  br label %48

33:                                               ; preds = %2
  %34 = add nsw i32 %21, 999
  %35 = icmp ult i32 %34, 1999
  br i1 %35, label %38, label %36

36:                                               ; preds = %33
  %37 = call i32 (i8*, ...) @printf(i8* nonnull dereferenceable(1) getelementptr inbounds ([9 x i8], [9 x i8]* @.str.2, i64 0, i64 0), i32 %7, i32 %12, i32 %18, i32 %24)
  br label %48

38:                                               ; preds = %33
  %39 = add nsw i32 %15, 99
  %40 = icmp ugt i32 %39, 198
  br i1 %40, label %41, label %43

41:                                               ; preds = %38
  %42 = call i32 (i8*, ...) @printf(i8* nonnull dereferenceable(1) getelementptr inbounds ([7 x i8], [7 x i8]* @.str.3, i64 0, i64 0), i32 %7, i32 %12, i32 %18)
  br label %48

43:                                               ; preds = %38
  %44 = add nsw i32 %9, 9
  %45 = icmp ugt i32 %44, 18
  br i1 %45, label %46, label %48

46:                                               ; preds = %43
  %47 = call i32 (i8*, ...) @printf(i8* nonnull dereferenceable(1) getelementptr inbounds ([5 x i8], [5 x i8]* @.str.4, i64 0, i64 0), i32 %7, i32 %12)
  br label %48

48:                                               ; preds = %36, %43, %46, %41, %30
  call void @llvm.lifetime.end.p0i8(i64 4, i8* nonnull %4) #3
  ret i32 0
}

; Function Attrs: argmemonly mustprogress nofree nosync nounwind willreturn
declare void @llvm.lifetime.start.p0i8(i64 immarg, i8* nocapture) #1

; Function Attrs: nofree nounwind
declare noundef i32 @__isoc99_scanf(i8* nocapture noundef readonly, ...) local_unnamed_addr #2

; Function Attrs: nofree nounwind
declare noundef i32 @printf(i8* nocapture noundef readonly, ...) local_unnamed_addr #2

; Function Attrs: argmemonly mustprogress nofree nosync nounwind willreturn
declare void @llvm.lifetime.end.p0i8(i64 immarg, i8* nocapture) #1


!llvm.module.flags = !{!0, !1, !2, !3}
!llvm.ident = !{!4}

!0 = !{i32 1, !"wchar_size", i32 4}
!1 = !{i32 7, !"PIC Level", i32 2}
!2 = !{i32 7, !"PIE Level", i32 2}
!3 = !{i32 7, !"uwtable", i32 1}
!4 = !{!"clang version 13.0.0"}
!5 = !{!6, !6, i64 0}
!6 = !{!"int", !7, i64 0}
!7 = !{!"omnipotent char", !8, i64 0}
!8 = !{!"Simple C/C++ TBAA"}
